target datalayout = "e-m:e-p270:32:32-p271:32:32-p272:64:64-i64:64-i128:128-f80:128-n8:16:32:64-S128"
target triple = "x86_64-unknown-linux-gnu"

%struct.asn1_string_st = type { i32, i32, ptr, i64 }
%struct.v3_ext_method = type { i32, i32, ptr, ptr, ptr, ptr, ptr, ptr, ptr, ptr, ptr, ptr, ptr, ptr }

@.str = private unnamed_addr constant [127 x i8] c"generated/home/dtcxzyw/WorkSpace/Projects/compilers/llvm-opt-benchmark/bench/libquic/libquic/boringssl/crypto/x509v3/v3_conf.c\00", align 1

; Function Attrs: nounwind uwtable
define internal ptr @do_ext_i2d(ptr noundef %method, i32 noundef %ext_nid, i32 noundef %crit, ptr noundef %ext_struc) #0 {
entry:
  %retval = alloca ptr, align 8
  %method.addr = alloca ptr, align 8
  %ext_nid.addr = alloca i32, align 4
  %crit.addr = alloca i32, align 4
  %ext_struc.addr = alloca ptr, align 8
  %ext_der = alloca ptr, align 8
  %ext_len = alloca i32, align 4
  %ext_oct = alloca ptr, align 8
  %ext = alloca ptr, align 8
  %p = alloca ptr, align 8
  store ptr %method, ptr %method.addr, align 8
  store i32 %ext_nid, ptr %ext_nid.addr, align 4
  store i32 %crit, ptr %crit.addr, align 4
  store ptr %ext_struc, ptr %ext_struc.addr, align 8
  %0 = load ptr, ptr %method.addr, align 8
  %it = getelementptr inbounds %struct.v3_ext_method, ptr %0, i32 0, i32 2
  %1 = load ptr, ptr %it, align 8
  %tobool = icmp ne ptr %1, null
  br i1 %tobool, label %if.then, label %if.else

if.then:                                          ; preds = %entry
  store ptr null, ptr %ext_der, align 8
  %2 = load ptr, ptr %ext_struc.addr, align 8
  %3 = load ptr, ptr %method.addr, align 8
  %it1 = getelementptr inbounds %struct.v3_ext_method, ptr %3, i32 0, i32 2
  %4 = load ptr, ptr %it1, align 8
  %call = call i32 @ASN1_item_i2d(ptr noundef %2, ptr noundef %ext_der, ptr noundef %4)
  store i32 %call, ptr %ext_len, align 4
  %5 = load i32, ptr %ext_len, align 4
  %cmp = icmp slt i32 %5, 0
  br i1 %cmp, label %if.then2, label %if.end

if.then2:                                         ; preds = %if.then
  br label %merr

if.end:                                           ; preds = %if.then
  br label %if.end10

if.else:                                          ; preds = %entry
  %6 = load ptr, ptr %method.addr, align 8
  %i2d = getelementptr inbounds %struct.v3_ext_method, ptr %6, i32 0, i32 6
  %7 = load ptr, ptr %i2d, align 8
  %8 = load ptr, ptr %ext_struc.addr, align 8
  %call3 = call i32 %7(ptr noundef %8, ptr noundef null)
  store i32 %call3, ptr %ext_len, align 4
  %9 = load i32, ptr %ext_len, align 4
  %conv = sext i32 %9 to i64
  %call4 = call noalias ptr @malloc(i64 noundef %conv) #9
  store ptr %call4, ptr %ext_der, align 8
  %tobool5 = icmp ne ptr %call4, null
  br i1 %tobool5, label %if.end7, label %if.then6

if.then6:                                         ; preds = %if.else
  br label %merr

if.end7:                                          ; preds = %if.else
  %10 = load ptr, ptr %ext_der, align 8
  store ptr %10, ptr %p, align 8
  %11 = load ptr, ptr %method.addr, align 8
  %i2d8 = getelementptr inbounds %struct.v3_ext_method, ptr %11, i32 0, i32 6
  %12 = load ptr, ptr %i2d8, align 8
  %13 = load ptr, ptr %ext_struc.addr, align 8
  %call9 = call i32 %12(ptr noundef %13, ptr noundef %p)
  br label %if.end10

if.end10:                                         ; preds = %if.end7, %if.end
  %call11 = call ptr @ASN1_STRING_type_new(i32 noundef 4)
  store ptr %call11, ptr %ext_oct, align 8
  %tobool12 = icmp ne ptr %call11, null
  br i1 %tobool12, label %if.end14, label %if.then13

if.then13:                                        ; preds = %if.end10
  br label %merr

if.end14:                                         ; preds = %if.end10
  %14 = load ptr, ptr %ext_der, align 8
  %15 = load ptr, ptr %ext_oct, align 8
  %data = getelementptr inbounds %struct.asn1_string_st, ptr %15, i32 0, i32 2
  store ptr %14, ptr %data, align 8
  %16 = load i32, ptr %ext_len, align 4
  %17 = load ptr, ptr %ext_oct, align 8
  %length = getelementptr inbounds %struct.asn1_string_st, ptr %17, i32 0, i32 0
  store i32 %16, ptr %length, align 8
  %18 = load i32, ptr %ext_nid.addr, align 4
  %19 = load i32, ptr %crit.addr, align 4
  %20 = load ptr, ptr %ext_oct, align 8
  %call15 = call ptr @X509_EXTENSION_create_by_NID(ptr noundef null, i32 noundef %18, i32 noundef %19, ptr noundef %20)
  store ptr %call15, ptr %ext, align 8
  %21 = load ptr, ptr %ext, align 8
  %tobool16 = icmp ne ptr %21, null
  br i1 %tobool16, label %if.end18, label %if.then17

if.then17:                                        ; preds = %if.end14
  br label %merr

if.end18:                                         ; preds = %if.end14
  %22 = load ptr, ptr %ext_oct, align 8
  call void @ASN1_STRING_free(ptr noundef %22)
  %23 = load ptr, ptr %ext, align 8
  store ptr %23, ptr %retval, align 8
  br label %return

merr:                                             ; preds = %if.then17, %if.then13, %if.then6, %if.then2
  call void @ERR_put_error(i32 noundef 20, i32 noundef 0, i32 noundef 65, ptr noundef @.str, i32 noundef 212)
  store ptr null, ptr %retval, align 8
  br label %return

return:                                           ; preds = %merr, %if.end18
  %24 = load ptr, ptr %retval, align 8
  ret ptr %24
}