; Function Attrs: nounwind uwtable
define internal fastcc ptr @do_ext_i2d(ptr noundef nonnull readonly captures(none) %method, i32 noundef %ext_nid, i32 noundef %crit, ptr noundef %ext_struc) unnamed_addr #0 {
entry:
  %ext_der = alloca ptr, align 8
  %p = alloca ptr, align 8
  %it = getelementptr inbounds nuw i8, ptr %method, i64 8
  %0 = load ptr, ptr %it, align 8
  %tobool.not = icmp eq ptr %0, null
  br i1 %tobool.not, label %if.else, label %if.then

if.then:                                          ; preds = %entry
  store ptr null, ptr %ext_der, align 8
  %call = call i32 @ASN1_item_i2d(ptr noundef %ext_struc, ptr noundef nonnull %ext_der, ptr noundef nonnull %0) #10
  %cmp = icmp slt i32 %call, 0
  br i1 %cmp, label %merr, label %if.end10

if.else:                                          ; preds = %entry
  %i2d = getelementptr inbounds nuw i8, ptr %method, i64 40
  %1 = load ptr, ptr %i2d, align 8
  %call3 = tail call i32 %1(ptr noundef %ext_struc, ptr noundef null) #10
  %conv = sext i32 %call3 to i64
  %call4 = tail call noalias ptr @malloc(i64 noundef %conv) #11
  store ptr %call4, ptr %ext_der, align 8
  %tobool5.not = icmp eq ptr %call4, null
  br i1 %tobool5.not, label %merr, label %if.end7

if.end7:                                          ; preds = %if.else
  store ptr %call4, ptr %p, align 8
  %2 = load ptr, ptr %i2d, align 8
  %call9 = call i32 %2(ptr noundef %ext_struc, ptr noundef nonnull %p) #10
  br label %if.end10

if.end10:                                         ; preds = %if.then, %if.end7
  %ext_len.0 = phi i32 [ %call, %if.then ], [ %call3, %if.end7 ]
  %call11 = call ptr @ASN1_STRING_type_new(i32 noundef 4) #10
  %tobool12.not = icmp eq ptr %call11, null
  br i1 %tobool12.not, label %merr, label %if.end14

if.end14:                                         ; preds = %if.end10
  %3 = load ptr, ptr %ext_der, align 8
  %data = getelementptr inbounds nuw i8, ptr %call11, i64 8
  store ptr %3, ptr %data, align 8
  store i32 %ext_len.0, ptr %call11, align 8
  %call15 = call ptr @X509_EXTENSION_create_by_NID(ptr noundef null, i32 noundef %ext_nid, i32 noundef %crit, ptr noundef nonnull %call11) #10
  %tobool16.not = icmp eq ptr %call15, null
  br i1 %tobool16.not, label %merr, label %if.end18

if.end18:                                         ; preds = %if.end14
  call void @ASN1_STRING_free(ptr noundef nonnull %call11) #10
  br label %return

merr:                                             ; preds = %if.end14, %if.end10, %if.else, %if.then
  call void @ERR_put_error(i32 noundef 20, i32 noundef 0, i32 noundef 65, ptr noundef nonnull @.str, i32 noundef 212) #10
  br label %return

return:                                           ; preds = %merr, %if.end18
  %retval.0 = phi ptr [ null, %merr ], [ %call15, %if.end18 ]
  ret ptr %retval.0
}